target datalayout = "e-m:e-p270:32:32-p271:32:32-p272:64:64-i64:64-i128:128-f80:128-n8:16:32:64-S128"
target triple = "x86_64-pc-linux-gnu"

%class.arith_util = type { ptr, ptr }
%class.bv_util = type { %class.bv_recognizers, ptr, ptr }
%class.bv_recognizers = type { i32 }
%class.obj_ref = type { ptr, ptr }
%class.ref_vector = type { %class.ref_vector_core }
%class.ref_vector_core = type { %class.ref_manager_wrapper, %class.ptr_vector }
%class.ref_manager_wrapper = type { ptr }
%class.ptr_vector = type { %class.vector.0 }
%class.vector.0 = type { ptr }
%class.svector = type { %class.vector.1 }
%class.vector.1 = type { ptr }
%class.substitution = type <{ ptr, %class.var_offset_map, %class.svector.33, %class.ref_vector, %class.svector.22, %class.svector.35, %class.expr_offset_map, %class.ref_vector, %class.expr_offset_map.38, i32, [4 x i8] }>
%class.var_offset_map = type <{ %class.svector.31, i32, i32, i32, [4 x i8] }>
%class.svector.31 = type { %class.vector.32 }
%class.vector.32 = type { ptr }
%class.svector.33 = type { %class.vector.34 }
%class.vector.34 = type { ptr }
%class.svector.22 = type { %class.vector.23 }
%class.vector.23 = type { ptr }
%class.svector.35 = type { %class.vector.36 }
%class.vector.36 = type { ptr }
%class.expr_offset_map = type <{ %class.vector.37, i32, [4 x i8] }>
%class.vector.37 = type { ptr }
%class.expr_offset_map.38 = type <{ %class.vector.39, i32, [4 x i8] }>
%class.vector.39 = type { ptr }
%"class.spacer::lemma_cluster_finder" = type { %"struct.spacer::lemma_cluster_finder::stats", ptr, %class.arith_util, %class.bv_util }
%"struct.spacer::lemma_cluster_finder::stats" = type { i32, [4 x i8], %class.stopwatch }
%class.stopwatch = type <{ %"class.std::chrono::time_point", %"class.std::chrono::duration", i8, [7 x i8] }>
%"class.std::chrono::time_point" = type { %"class.std::chrono::duration" }
%"class.std::chrono::duration" = type { i64 }
%"class.spacer::anti_unifier" = type { ptr, %class.ref_vector, %class.svector, %class.obj_pair_map, %class.svector }
%class.obj_pair_map = type { %class.core_hashtable.58 }
%class.core_hashtable.58 = type <{ ptr, i32, i32, i32, [4 x i8] }>

; Function Attrs: mustprogress nounwind uwtable
define linkonce_odr hidden noundef ptr @_ZNK7obj_refI4expr11ast_managerEcvPS0_Ev(ptr noundef nonnull align 8 dereferenceable(16) %0) #5 comdat align 2 {
  %2 = alloca ptr, align 8
  store ptr %0, ptr %2, align 8, !tbaa !8
  %3 = load ptr, ptr %2, align 8
  %4 = getelementptr inbounds nuw %class.obj_ref, ptr %3, i32 0, i32 0
  %5 = load ptr, ptr %4, align 8, !tbaa !40
  ret ptr %5
}

; Function Attrs: mustprogress nounwind uwtable
define linkonce_odr hidden void @_ZN7obj_refI4expr11ast_managerEC2ERS1_(ptr noundef nonnull align 8 dereferenceable(16) %0, ptr noundef nonnull align 8 dereferenceable(976) %1) unnamed_addr #5 comdat align 2 {
  %3 = alloca ptr, align 8
  %4 = alloca ptr, align 8
  store ptr %0, ptr %3, align 8, !tbaa !8
  store ptr %1, ptr %4, align 8, !tbaa !10
  %5 = load ptr, ptr %3, align 8
  %6 = getelementptr inbounds nuw %class.obj_ref, ptr %5, i32 0, i32 0
  store ptr null, ptr %6, align 8, !tbaa !40
  %7 = getelementptr inbounds nuw %class.obj_ref, ptr %5, i32 0, i32 1
  %8 = load ptr, ptr %4, align 8, !tbaa !10
  store ptr %8, ptr %7, align 8, !tbaa !10
  ret void
}

; Function Attrs: mustprogress uwtable
define hidden noundef zeroext i1 @_ZN6spacer20lemma_cluster_finder14are_neighboursERK7obj_refI4expr11ast_managerES6_(ptr noundef nonnull align 8 dereferenceable(80) %0, ptr noundef nonnull align 8 dereferenceable(16) %1, ptr noundef nonnull align 8 dereferenceable(16) %2) #4 align 2 personality ptr @__gxx_personality_v0 {
  %4 = alloca ptr, align 8
  %5 = alloca ptr, align 8
  %6 = alloca ptr, align 8
  %7 = alloca %"class.spacer::anti_unifier", align 8
  %8 = alloca %class.obj_ref, align 8
  %9 = alloca ptr, align 8
  %10 = alloca i32, align 4
  %11 = alloca %class.substitution, align 8
  %12 = alloca %class.substitution, align 8
  store ptr %0, ptr %4, align 8, !tbaa !122
  store ptr %1, ptr %5, align 8, !tbaa !8
  store ptr %2, ptr %6, align 8, !tbaa !8
  %13 = load ptr, ptr %4, align 8
  call void @llvm.lifetime.start.p0(i64 64, ptr %7) #3
  %14 = getelementptr inbounds nuw %"class.spacer::lemma_cluster_finder", ptr %13, i32 0, i32 1
  %15 = load ptr, ptr %14, align 8, !tbaa !124
  call void @_ZN6spacer12anti_unifierC1ER11ast_manager(ptr noundef nonnull align 8 dereferenceable(64) %7, ptr noundef nonnull align 8 dereferenceable(976) %15)
  call void @llvm.lifetime.start.p0(i64 16, ptr %8) #3
  %16 = getelementptr inbounds nuw %"class.spacer::lemma_cluster_finder", ptr %13, i32 0, i32 1
  %17 = load ptr, ptr %16, align 8, !tbaa !124
  invoke void @_ZN7obj_refI4expr11ast_managerEC2ERS1_(ptr noundef nonnull align 8 dereferenceable(16) %8, ptr noundef nonnull align 8 dereferenceable(976) %17)
          to label %18 unwind label %39

18:                                               ; preds = %3
  call void @llvm.lifetime.start.p0(i64 128, ptr %11) #3
  %19 = getelementptr inbounds nuw %"class.spacer::lemma_cluster_finder", ptr %13, i32 0, i32 1
  %20 = load ptr, ptr %19, align 8, !tbaa !124
  invoke void @_ZN12substitutionC1ER11ast_manager(ptr noundef nonnull align 8 dereferenceable(124) %11, ptr noundef nonnull align 8 dereferenceable(976) %20)
          to label %21 unwind label %43

21:                                               ; preds = %18
  call void @llvm.lifetime.start.p0(i64 128, ptr %12) #3
  %22 = getelementptr inbounds nuw %"class.spacer::lemma_cluster_finder", ptr %13, i32 0, i32 1
  %23 = load ptr, ptr %22, align 8, !tbaa !124
  invoke void @_ZN12substitutionC1ER11ast_manager(ptr noundef nonnull align 8 dereferenceable(124) %12, ptr noundef nonnull align 8 dereferenceable(976) %23)
          to label %24 unwind label %47

24:                                               ; preds = %21
  %25 = load ptr, ptr %5, align 8, !tbaa !8
  %26 = invoke noundef ptr @_ZNK7obj_refI4expr11ast_managerEcvPS0_Ev(ptr noundef nonnull align 8 dereferenceable(16) %25)
          to label %27 unwind label %51

27:                                               ; preds = %24
  %28 = load ptr, ptr %6, align 8, !tbaa !8
  %29 = invoke noundef ptr @_ZNK7obj_refI4expr11ast_managerEcvPS0_Ev(ptr noundef nonnull align 8 dereferenceable(16) %28)
          to label %30 unwind label %51

30:                                               ; preds = %27
  invoke void @_ZN6spacer12anti_unifierclEP4exprS2_R7obj_refIS1_11ast_managerER12substitutionS8_(ptr noundef nonnull align 8 dereferenceable(64) %7, ptr noundef %26, ptr noundef %29, ptr noundef nonnull align 8 dereferenceable(16) %8, ptr noundef nonnull align 8 dereferenceable(124) %11, ptr noundef nonnull align 8 dereferenceable(124) %12)
          to label %31 unwind label %51

31:                                               ; preds = %30
  %32 = invoke noundef zeroext i1 @_ZN6spacer14is_numeric_subERK12substitution(ptr noundef nonnull align 8 dereferenceable(124) %11)
          to label %33 unwind label %51

33:                                               ; preds = %31
  br i1 %32, label %34, label %37

34:                                               ; preds = %33
  %35 = invoke noundef zeroext i1 @_ZN6spacer14is_numeric_subERK12substitution(ptr noundef nonnull align 8 dereferenceable(124) %12)
          to label %36 unwind label %51

36:                                               ; preds = %34
  br label %37

37:                                               ; preds = %36, %33
  %38 = phi i1 [ false, %33 ], [ %35, %36 ]
  call void @_ZN12substitutionD2Ev(ptr noundef nonnull align 8 dereferenceable(124) %12) #3
  call void @llvm.lifetime.end.p0(i64 128, ptr %12) #3
  call void @_ZN12substitutionD2Ev(ptr noundef nonnull align 8 dereferenceable(124) %11) #3
  call void @llvm.lifetime.end.p0(i64 128, ptr %11) #3
  call void @_ZN7obj_refI4expr11ast_managerED2Ev(ptr noundef nonnull align 8 dereferenceable(16) %8) #3
  call void @llvm.lifetime.end.p0(i64 16, ptr %8) #3
  call void @_ZN6spacer12anti_unifierD2Ev(ptr noundef nonnull align 8 dereferenceable(64) %7) #3
  call void @llvm.lifetime.end.p0(i64 64, ptr %7) #3
  ret i1 %38

39:                                               ; preds = %3
  %40 = landingpad { ptr, i32 }
          cleanup
  %41 = extractvalue { ptr, i32 } %40, 0
  store ptr %41, ptr %9, align 8
  %42 = extractvalue { ptr, i32 } %40, 1
  store i32 %42, ptr %10, align 4
  br label %57

43:                                               ; preds = %18
  %44 = landingpad { ptr, i32 }
          cleanup
  %45 = extractvalue { ptr, i32 } %44, 0
  store ptr %45, ptr %9, align 8
  %46 = extractvalue { ptr, i32 } %44, 1
  store i32 %46, ptr %10, align 4
  br label %56

47:                                               ; preds = %21
  %48 = landingpad { ptr, i32 }
          cleanup
  %49 = extractvalue { ptr, i32 } %48, 0
  store ptr %49, ptr %9, align 8
  %50 = extractvalue { ptr, i32 } %48, 1
  store i32 %50, ptr %10, align 4
  br label %55

51:                                               ; preds = %34, %31, %30, %27, %24
  %52 = landingpad { ptr, i32 }
          cleanup
  %53 = extractvalue { ptr, i32 } %52, 0
  store ptr %53, ptr %9, align 8
  %54 = extractvalue { ptr, i32 } %52, 1
  store i32 %54, ptr %10, align 4
  call void @_ZN12substitutionD2Ev(ptr noundef nonnull align 8 dereferenceable(124) %12) #3
  br label %55

55:                                               ; preds = %51, %47
  call void @llvm.lifetime.end.p0(i64 128, ptr %12) #3
  call void @_ZN12substitutionD2Ev(ptr noundef nonnull align 8 dereferenceable(124) %11) #3
  br label %56

56:                                               ; preds = %55, %43
  call void @llvm.lifetime.end.p0(i64 128, ptr %11) #3
  call void @_ZN7obj_refI4expr11ast_managerED2Ev(ptr noundef nonnull align 8 dereferenceable(16) %8) #3
  br label %57

57:                                               ; preds = %56, %39
  call void @llvm.lifetime.end.p0(i64 16, ptr %8) #3
  call void @_ZN6spacer12anti_unifierD2Ev(ptr noundef nonnull align 8 dereferenceable(64) %7) #3
  call void @llvm.lifetime.end.p0(i64 64, ptr %7) #3
  br label %58

58:                                               ; preds = %57
  %59 = load ptr, ptr %9, align 8
  %60 = load i32, ptr %10, align 4
  %61 = insertvalue { ptr, i32 } poison, ptr %59, 0
  %62 = insertvalue { ptr, i32 } %61, i32 %60, 1
  resume { ptr, i32 } %62
}