; Function Attrs: mustprogress uwtable
define hidden noundef zeroext i1 @_ZN6spacer20lemma_cluster_finder14are_neighboursERK7obj_refI4expr11ast_managerES6_(ptr noundef nonnull readonly align 8 captures(none) dereferenceable(80) %0, ptr noundef nonnull readonly align 8 captures(none) dereferenceable(16) %1, ptr noundef nonnull readonly align 8 captures(none) dereferenceable(16) %2) local_unnamed_addr #3 align 2 personality ptr @__gxx_personality_v0 {
  %4 = alloca %"class.spacer::anti_unifier", align 8
  %5 = alloca %class.obj_ref, align 8
  %6 = alloca %class.substitution, align 8
  %7 = alloca %class.substitution, align 8
  call void @llvm.lifetime.start.p0(i64 64, ptr nonnull %4) #20
  %8 = getelementptr inbounds nuw i8, ptr %0, i64 32
  %9 = load ptr, ptr %8, align 8, !tbaa !185
  call void @_ZN6spacer12anti_unifierC1ER11ast_manager(ptr noundef nonnull align 8 dereferenceable(64) %4, ptr noundef nonnull align 8 dereferenceable(976) %9)
  call void @llvm.lifetime.start.p0(i64 16, ptr nonnull %5) #20
  %10 = load ptr, ptr %8, align 8, !tbaa !185
  store ptr null, ptr %5, align 8, !tbaa !34
  %11 = getelementptr inbounds nuw i8, ptr %5, i64 8
  store ptr %10, ptr %11, align 8, !tbaa !10
  call void @llvm.lifetime.start.p0(i64 128, ptr nonnull %6) #20
  invoke void @_ZN12substitutionC1ER11ast_manager(ptr noundef nonnull align 8 dereferenceable(124) %6, ptr noundef nonnull align 8 dereferenceable(976) %10)
          to label %12 unwind label %35

12:                                               ; preds = %3
  call void @llvm.lifetime.start.p0(i64 128, ptr nonnull %7) #20
  %13 = load ptr, ptr %8, align 8, !tbaa !185
  invoke void @_ZN12substitutionC1ER11ast_manager(ptr noundef nonnull align 8 dereferenceable(124) %7, ptr noundef nonnull align 8 dereferenceable(976) %13)
          to label %14 unwind label %37

14:                                               ; preds = %12
  %15 = load ptr, ptr %1, align 8, !tbaa !34
  %16 = load ptr, ptr %2, align 8, !tbaa !34
  invoke void @_ZN6spacer12anti_unifierclEP4exprS2_R7obj_refIS1_11ast_managerER12substitutionS8_(ptr noundef nonnull align 8 dereferenceable(64) %4, ptr noundef %15, ptr noundef %16, ptr noundef nonnull align 8 dereferenceable(16) %5, ptr noundef nonnull align 8 dereferenceable(124) %6, ptr noundef nonnull align 8 dereferenceable(124) %7)
          to label %17 unwind label %39

17:                                               ; preds = %14
  %18 = invoke noundef zeroext i1 @_ZN6spacer14is_numeric_subERK12substitution(ptr noundef nonnull align 8 dereferenceable(124) %6)
          to label %19 unwind label %39

19:                                               ; preds = %17
  br i1 %18, label %20, label %22

20:                                               ; preds = %19
  %21 = invoke noundef zeroext i1 @_ZN6spacer14is_numeric_subERK12substitution(ptr noundef nonnull align 8 dereferenceable(124) %7)
          to label %22 unwind label %39

22:                                               ; preds = %20, %19
  %23 = phi i1 [ false, %19 ], [ %21, %20 ]
  call void @_ZN12substitutionD2Ev(ptr noundef nonnull align 8 dereferenceable(124) %7) #20
  call void @llvm.lifetime.end.p0(i64 128, ptr nonnull %7) #20
  call void @_ZN12substitutionD2Ev(ptr noundef nonnull align 8 dereferenceable(124) %6) #20
  call void @llvm.lifetime.end.p0(i64 128, ptr nonnull %6) #20
  %24 = load ptr, ptr %5, align 8, !tbaa !34
  %.not.i.i = icmp eq ptr %24, null
  br i1 %.not.i.i, label %_ZN7obj_refI4expr11ast_managerED2Ev.exit, label %25

25:                                               ; preds = %22
  %26 = load ptr, ptr %11, align 8, !tbaa !3
  %27 = getelementptr inbounds nuw i8, ptr %24, i64 8
  %28 = load i32, ptr %27, align 4, !tbaa !35
  %29 = add i32 %28, -1
  store i32 %29, ptr %27, align 4, !tbaa !35
  %30 = icmp eq i32 %29, 0
  br i1 %30, label %31, label %_ZN7obj_refI4expr11ast_managerED2Ev.exit

31:                                               ; preds = %25
  invoke void @_ZN11ast_manager11delete_nodeEP3ast(ptr noundef nonnull align 8 dereferenceable(976) %26, ptr noundef nonnull %24)
          to label %_ZN7obj_refI4expr11ast_managerED2Ev.exit unwind label %32

32:                                               ; preds = %31
  %33 = landingpad { ptr, i32 }
          catch ptr null
  %34 = extractvalue { ptr, i32 } %33, 0
  call void @__clang_call_terminate(ptr %34) #21
  unreachable

_ZN7obj_refI4expr11ast_managerED2Ev.exit:         ; preds = %22, %25, %31
  call void @llvm.lifetime.end.p0(i64 16, ptr nonnull %5) #20
  call void @_ZN6spacer12anti_unifierD2Ev(ptr noundef nonnull align 8 dereferenceable(64) %4) #20
  call void @llvm.lifetime.end.p0(i64 64, ptr nonnull %4) #20
  ret i1 %23

35:                                               ; preds = %3
  %36 = landingpad { ptr, i32 }
          cleanup
  br label %42

37:                                               ; preds = %12
  %38 = landingpad { ptr, i32 }
          cleanup
  br label %41

39:                                               ; preds = %20, %17, %14
  %40 = landingpad { ptr, i32 }
          cleanup
  call void @_ZN12substitutionD2Ev(ptr noundef nonnull align 8 dereferenceable(124) %7) #20
  br label %41

41:                                               ; preds = %39, %37
  %.pn = phi { ptr, i32 } [ %40, %39 ], [ %38, %37 ]
  call void @llvm.lifetime.end.p0(i64 128, ptr nonnull %7) #20
  call void @_ZN12substitutionD2Ev(ptr noundef nonnull align 8 dereferenceable(124) %6) #20
  br label %42

42:                                               ; preds = %41, %35
  %.pn.pn = phi { ptr, i32 } [ %.pn, %41 ], [ %36, %35 ]
  call void @llvm.lifetime.end.p0(i64 128, ptr nonnull %6) #20
  call void @_ZN7obj_refI4expr11ast_managerED2Ev(ptr noundef nonnull align 8 dereferenceable(16) %5) #20
  call void @llvm.lifetime.end.p0(i64 16, ptr nonnull %5) #20
  call void @_ZN6spacer12anti_unifierD2Ev(ptr noundef nonnull align 8 dereferenceable(64) %4) #20
  call void @llvm.lifetime.end.p0(i64 64, ptr nonnull %4) #20
  resume { ptr, i32 } %.pn.pn
}